; Function Attrs: mustprogress uwtable
define void @_ZN3zmq8stream_t16xpipe_terminatedEPNS_6pipe_tE(ptr noundef nonnull align 8 dereferenceable(2112) %0, ptr noundef %1) unnamed_addr #0 align 2 {
  tail call void @_ZN3zmq21routing_socket_base_t14erase_out_pipeEPKNS_6pipe_tE(ptr noundef nonnull align 8 dereferenceable(1912) %0, ptr noundef %1)
  %3 = getelementptr inbounds nuw i8, ptr %0, i64 1912
  tail call void @_ZN3zmq4fq_t15pipe_terminatedEPNS_6pipe_tE(ptr noundef nonnull align 8 dereferenceable(41) %3, ptr noundef %1)
  %4 = getelementptr inbounds nuw i8, ptr %0, i64 2096
  %5 = load ptr, ptr %4, align 8, !tbaa !95
  %6 = icmp eq ptr %1, %5
  br i1 %6, label %7, label %8

7:                                                ; preds = %2
  store ptr null, ptr %4, align 8, !tbaa !95
  br label %8

8:                                                ; preds = %7, %2
  ret void
}